(dp1
S'ASIS CTF Finals 2014'
p2
(lp3
S'Oct. 11, 2014 06:30 \x97 Oct. 13, 06:30 UTC '
p4
aS'59 teams'
p5
aS'2d 0h'
p6
asS'MalCon 2014 Quals'
p7
(lp8
S'Oct. 03, 2014 16:00 \x97 Oct. 06, 16:00 UTC '
p9
aS'33 teams'
p10
aS'3d 0h'
p11
asS'HITB2014KUL Capture the Flag: Age of Extinction'
p12
(lp13
S'Oct. 15, 2014 02:00 \x97 Oct. 16, 10:00 UTC '
p14
aS'2 teams'
p15
aS'1d 8h'
p16
as.